target datalayout = "e-m:e-p270:32:32-p271:32:32-p272:64:64-i64:64-i128:128-f80:128-n8:16:32:64-S128"
target triple = "x86_64-pc-linux-gnu"

%union.anon = type { i32 }
%union.anon.1 = type { double }

; Function Attrs: inlinehint mustprogress nounwind uwtable
define internal noundef zeroext i16 @_ZL10__bswap_16t(i16 noundef zeroext %0) #4 {
  %2 = alloca i16, align 2
  store i16 %0, ptr %2, align 2, !tbaa !75
  %3 = load i16, ptr %2, align 2, !tbaa !75
  %4 = zext i16 %3 to i32
  %5 = ashr i32 %4, 8
  %6 = and i32 %5, 255
  %7 = load i16, ptr %2, align 2, !tbaa !75
  %8 = zext i16 %7 to i32
  %9 = and i32 %8, 255
  %10 = shl i32 %9, 8
  %11 = or i32 %6, %10
  %12 = trunc i32 %11 to i16
  ret i16 %12
}

; Function Attrs: mustprogress nounwind uwtable
define noundef float @_Z19libraw_int_to_floati(i32 noundef %0) #0 {
  %2 = alloca i32, align 4
  %3 = alloca %union.anon, align 4
  store i32 %0, ptr %2, align 4, !tbaa !79
  call void @llvm.lifetime.start.p0(i64 4, ptr %3) #6
  %4 = load i32, ptr %2, align 4, !tbaa !79
  store i32 %4, ptr %3, align 4, !tbaa !74
  %5 = load float, ptr %3, align 4, !tbaa !74
  call void @llvm.lifetime.end.p0(i64 4, ptr %3) #6
  ret float %5
}

; Function Attrs: mustprogress nounwind uwtable
define noundef i32 @_Z19libraw_sget4_staticsPh(i16 noundef signext %0, ptr noundef %1) #0 {
  %3 = alloca i32, align 4
  %4 = alloca i16, align 2
  %5 = alloca ptr, align 8
  store i16 %0, ptr %4, align 2, !tbaa !75
  store ptr %1, ptr %5, align 8, !tbaa !11
  %6 = load i16, ptr %4, align 2, !tbaa !75
  %7 = sext i16 %6 to i32
  %8 = icmp eq i32 %7, 18761
  br i1 %8, label %9, label %32

9:                                                ; preds = %2
  %10 = load ptr, ptr %5, align 8, !tbaa !11
  %11 = getelementptr inbounds i8, ptr %10, i64 0
  %12 = load i8, ptr %11, align 1, !tbaa !74
  %13 = zext i8 %12 to i32
  %14 = load ptr, ptr %5, align 8, !tbaa !11
  %15 = getelementptr inbounds i8, ptr %14, i64 1
  %16 = load i8, ptr %15, align 1, !tbaa !74
  %17 = zext i8 %16 to i32
  %18 = shl i32 %17, 8
  %19 = or i32 %13, %18
  %20 = load ptr, ptr %5, align 8, !tbaa !11
  %21 = getelementptr inbounds i8, ptr %20, i64 2
  %22 = load i8, ptr %21, align 1, !tbaa !74
  %23 = zext i8 %22 to i32
  %24 = shl i32 %23, 16
  %25 = or i32 %19, %24
  %26 = load ptr, ptr %5, align 8, !tbaa !11
  %27 = getelementptr inbounds i8, ptr %26, i64 3
  %28 = load i8, ptr %27, align 1, !tbaa !74
  %29 = zext i8 %28 to i32
  %30 = shl i32 %29, 24
  %31 = or i32 %25, %30
  store i32 %31, ptr %3, align 4
  br label %55

32:                                               ; preds = %2
  %33 = load ptr, ptr %5, align 8, !tbaa !11
  %34 = getelementptr inbounds i8, ptr %33, i64 0
  %35 = load i8, ptr %34, align 1, !tbaa !74
  %36 = zext i8 %35 to i32
  %37 = shl i32 %36, 24
  %38 = load ptr, ptr %5, align 8, !tbaa !11
  %39 = getelementptr inbounds i8, ptr %38, i64 1
  %40 = load i8, ptr %39, align 1, !tbaa !74
  %41 = zext i8 %40 to i32
  %42 = shl i32 %41, 16
  %43 = or i32 %37, %42
  %44 = load ptr, ptr %5, align 8, !tbaa !11
  %45 = getelementptr inbounds i8, ptr %44, i64 2
  %46 = load i8, ptr %45, align 1, !tbaa !74
  %47 = zext i8 %46 to i32
  %48 = shl i32 %47, 8
  %49 = or i32 %43, %48
  %50 = load ptr, ptr %5, align 8, !tbaa !11
  %51 = getelementptr inbounds i8, ptr %50, i64 3
  %52 = load i8, ptr %51, align 1, !tbaa !74
  %53 = zext i8 %52 to i32
  %54 = or i32 %49, %53
  store i32 %54, ptr %3, align 4
  br label %55

55:                                               ; preds = %32, %9
  %56 = load i32, ptr %3, align 4
  ret i32 %56
}

; Function Attrs: mustprogress nounwind uwtable
define noundef zeroext i16 @_Z19libraw_sget2_staticsPh(i16 noundef signext %0, ptr noundef %1) #0 {
  %3 = alloca i16, align 2
  %4 = alloca i16, align 2
  %5 = alloca ptr, align 8
  store i16 %0, ptr %4, align 2, !tbaa !75
  store ptr %1, ptr %5, align 8, !tbaa !11
  %6 = load i16, ptr %4, align 2, !tbaa !75
  %7 = sext i16 %6 to i32
  %8 = icmp eq i32 %7, 18761
  br i1 %8, label %9, label %21

9:                                                ; preds = %2
  %10 = load ptr, ptr %5, align 8, !tbaa !11
  %11 = getelementptr inbounds i8, ptr %10, i64 0
  %12 = load i8, ptr %11, align 1, !tbaa !74
  %13 = zext i8 %12 to i32
  %14 = load ptr, ptr %5, align 8, !tbaa !11
  %15 = getelementptr inbounds i8, ptr %14, i64 1
  %16 = load i8, ptr %15, align 1, !tbaa !74
  %17 = zext i8 %16 to i32
  %18 = shl i32 %17, 8
  %19 = or i32 %13, %18
  %20 = trunc i32 %19 to i16
  store i16 %20, ptr %3, align 2
  br label %33

21:                                               ; preds = %2
  %22 = load ptr, ptr %5, align 8, !tbaa !11
  %23 = getelementptr inbounds i8, ptr %22, i64 0
  %24 = load i8, ptr %23, align 1, !tbaa !74
  %25 = zext i8 %24 to i32
  %26 = shl i32 %25, 8
  %27 = load ptr, ptr %5, align 8, !tbaa !11
  %28 = getelementptr inbounds i8, ptr %27, i64 1
  %29 = load i8, ptr %28, align 1, !tbaa !74
  %30 = zext i8 %29 to i32
  %31 = or i32 %26, %30
  %32 = trunc i32 %31 to i16
  store i16 %32, ptr %3, align 2
  br label %33

33:                                               ; preds = %21, %9
  %34 = load i16, ptr %3, align 2
  ret i16 %34
}

; Function Attrs: mustprogress uwtable
define noundef double @_Z22libraw_sgetreal_staticsiPh(i16 noundef signext %0, i32 noundef %1, ptr noundef %2) #1 {
  %4 = alloca double, align 8
  %5 = alloca i16, align 2
  %6 = alloca i32, align 4
  %7 = alloca ptr, align 8
  %8 = alloca %union.anon.1, align 8
  %9 = alloca %union.anon.1, align 8
  %10 = alloca i32, align 4
  %11 = alloca i32, align 4
  %12 = alloca i32, align 4
  store i16 %0, ptr %5, align 2, !tbaa !75
  store i32 %1, ptr %6, align 4, !tbaa !79
  store ptr %2, ptr %7, align 8, !tbaa !11
  call void @llvm.lifetime.start.p0(i64 8, ptr %8) #6
  call void @llvm.lifetime.start.p0(i64 8, ptr %9) #6
  call void @llvm.lifetime.start.p0(i64 4, ptr %10) #6
  call void @llvm.lifetime.start.p0(i64 4, ptr %11) #6
  %13 = load i32, ptr %6, align 4, !tbaa !79
  switch i32 %13, label %107 [
    i32 3, label %14
    i32 4, label %19
    i32 5, label %24
    i32 8, label %43
    i32 9, label %48
    i32 10, label %53
    i32 11, label %72
    i32 12, label %78
  ]

14:                                               ; preds = %3
  %15 = load i16, ptr %5, align 2, !tbaa !75
  %16 = load ptr, ptr %7, align 8, !tbaa !11
  %17 = call noundef zeroext i16 @_Z19libraw_sget2_staticsPh(i16 noundef signext %15, ptr noundef %16)
  %18 = uitofp i16 %17 to double
  store double %18, ptr %4, align 8
  store i32 1, ptr %12, align 4
  br label %112

19:                                               ; preds = %3
  %20 = load i16, ptr %5, align 2, !tbaa !75
  %21 = load ptr, ptr %7, align 8, !tbaa !11
  %22 = call noundef i32 @_Z19libraw_sget4_staticsPh(i16 noundef signext %20, ptr noundef %21)
  %23 = uitofp i32 %22 to double
  store double %23, ptr %4, align 8
  store i32 1, ptr %12, align 4
  br label %112

24:                                               ; preds = %3
  %25 = load i16, ptr %5, align 2, !tbaa !75
  %26 = load ptr, ptr %7, align 8, !tbaa !11
  %27 = call noundef i32 @_Z19libraw_sget4_staticsPh(i16 noundef signext %25, ptr noundef %26)
  %28 = uitofp i32 %27 to double
  store double %28, ptr %8, align 8, !tbaa !74
  %29 = load i16, ptr %5, align 2, !tbaa !75
  %30 = load ptr, ptr %7, align 8, !tbaa !11
  %31 = getelementptr inbounds i8, ptr %30, i64 4
  %32 = call noundef i32 @_Z19libraw_sget4_staticsPh(i16 noundef signext %29, ptr noundef %31)
  %33 = uitofp i32 %32 to double
  store double %33, ptr %9, align 8, !tbaa !74
  %34 = load double, ptr %8, align 8, !tbaa !74
  %35 = load double, ptr %9, align 8, !tbaa !74
  %36 = fcmp reassoc nsz arcp contract afn une double %35, 0.000000e+00
  br i1 %36, label %37, label %39

37:                                               ; preds = %24
  %38 = load double, ptr %9, align 8, !tbaa !74
  br label %40

39:                                               ; preds = %24
  br label %40

40:                                               ; preds = %39, %37
  %41 = phi reassoc nsz arcp contract afn double [ %38, %37 ], [ 1.000000e+00, %39 ]
  %42 = fdiv reassoc nsz arcp contract afn double %34, %41
  store double %42, ptr %4, align 8
  store i32 1, ptr %12, align 4
  br label %112

43:                                               ; preds = %3
  %44 = load i16, ptr %5, align 2, !tbaa !75
  %45 = load ptr, ptr %7, align 8, !tbaa !11
  %46 = call noundef zeroext i16 @_Z19libraw_sget2_staticsPh(i16 noundef signext %44, ptr noundef %45)
  %47 = sitofp i16 %46 to double
  store double %47, ptr %4, align 8
  store i32 1, ptr %12, align 4
  br label %112

48:                                               ; preds = %3
  %49 = load i16, ptr %5, align 2, !tbaa !75
  %50 = load ptr, ptr %7, align 8, !tbaa !11
  %51 = call noundef i32 @_Z19libraw_sget4_staticsPh(i16 noundef signext %49, ptr noundef %50)
  %52 = sitofp i32 %51 to double
  store double %52, ptr %4, align 8
  store i32 1, ptr %12, align 4
  br label %112

53:                                               ; preds = %3
  %54 = load i16, ptr %5, align 2, !tbaa !75
  %55 = load ptr, ptr %7, align 8, !tbaa !11
  %56 = call noundef i32 @_Z19libraw_sget4_staticsPh(i16 noundef signext %54, ptr noundef %55)
  %57 = sitofp i32 %56 to double
  store double %57, ptr %8, align 8, !tbaa !74
  %58 = load i16, ptr %5, align 2, !tbaa !75
  %59 = load ptr, ptr %7, align 8, !tbaa !11
  %60 = getelementptr inbounds i8, ptr %59, i64 4
  %61 = call noundef i32 @_Z19libraw_sget4_staticsPh(i16 noundef signext %58, ptr noundef %60)
  %62 = sitofp i32 %61 to double
  store double %62, ptr %9, align 8, !tbaa !74
  %63 = load double, ptr %8, align 8, !tbaa !74
  %64 = load double, ptr %9, align 8, !tbaa !74
  %65 = fcmp reassoc nsz arcp contract afn une double %64, 0.000000e+00
  br i1 %65, label %66, label %68

66:                                               ; preds = %53
  %67 = load double, ptr %9, align 8, !tbaa !74
  br label %69

68:                                               ; preds = %53
  br label %69

69:                                               ; preds = %68, %66
  %70 = phi reassoc nsz arcp contract afn double [ %67, %66 ], [ 1.000000e+00, %68 ]
  %71 = fdiv reassoc nsz arcp contract afn double %63, %70
  store double %71, ptr %4, align 8
  store i32 1, ptr %12, align 4
  br label %112

72:                                               ; preds = %3
  %73 = load i16, ptr %5, align 2, !tbaa !75
  %74 = load ptr, ptr %7, align 8, !tbaa !11
  %75 = call noundef i32 @_Z19libraw_sget4_staticsPh(i16 noundef signext %73, ptr noundef %74)
  %76 = call reassoc nsz arcp contract afn noundef float @_Z19libraw_int_to_floati(i32 noundef %75)
  %77 = fpext reassoc nsz arcp contract afn float %76 to double
  store double %77, ptr %4, align 8
  store i32 1, ptr %12, align 4
  br label %112

78:                                               ; preds = %3
  %79 = load i16, ptr %5, align 2, !tbaa !75
  %80 = sext i16 %79 to i32
  %81 = icmp eq i32 %80, 18761
  %82 = zext i1 %81 to i32
  %83 = call noundef zeroext i16 @_ZL10__bswap_16t(i16 noundef zeroext 4660)
  %84 = zext i16 %83 to i32
  %85 = icmp eq i32 %84, 4660
  %86 = zext i1 %85 to i32
  %87 = icmp eq i32 %82, %86
  %88 = zext i1 %87 to i32
  %89 = mul nsw i32 7, %88
  store i32 %89, ptr %11, align 4, !tbaa !79
  store i32 0, ptr %10, align 4, !tbaa !79
  br label %90

90:                                               ; preds = %102, %78
  %91 = load i32, ptr %10, align 4, !tbaa !79
  %92 = icmp slt i32 %91, 8
  br i1 %92, label %93, label %105

93:                                               ; preds = %90
  %94 = load ptr, ptr %7, align 8, !tbaa !11
  %95 = getelementptr inbounds i8, ptr %94, i64 1
  %96 = load i8, ptr %95, align 1, !tbaa !74
  %97 = load i32, ptr %10, align 4, !tbaa !79
  %98 = load i32, ptr %11, align 4, !tbaa !79
  %99 = xor i32 %97, %98
  %100 = sext i32 %99 to i64
  %101 = getelementptr inbounds [8 x i8], ptr %8, i64 0, i64 %100
  store i8 %96, ptr %101, align 1, !tbaa !74
  br label %102

102:                                              ; preds = %93
  %103 = load i32, ptr %10, align 4, !tbaa !79
  %104 = add nsw i32 %103, 1
  store i32 %104, ptr %10, align 4, !tbaa !79
  br label %90, !llvm.loop !82

105:                                              ; preds = %90
  %106 = load double, ptr %8, align 8, !tbaa !74
  store double %106, ptr %4, align 8
  store i32 1, ptr %12, align 4
  br label %112

107:                                              ; preds = %3
  %108 = load ptr, ptr %7, align 8, !tbaa !11
  %109 = getelementptr inbounds i8, ptr %108, i64 1
  %110 = load i8, ptr %109, align 1, !tbaa !74
  %111 = uitofp i8 %110 to double
  store double %111, ptr %4, align 8
  store i32 1, ptr %12, align 4
  br label %112

112:                                              ; preds = %107, %105, %72, %69, %48, %43, %40, %19, %14
  call void @llvm.lifetime.end.p0(i64 4, ptr %11) #6
  call void @llvm.lifetime.end.p0(i64 4, ptr %10) #6
  call void @llvm.lifetime.end.p0(i64 8, ptr %9) #6
  call void @llvm.lifetime.end.p0(i64 8, ptr %8) #6
  %113 = load double, ptr %4, align 8
  ret double %113
}