; Function Attrs: mustprogress nofree norecurse nosync nounwind willreturn memory(argmem: read) uwtable
define noundef double @_Z22libraw_sgetreal_staticsiPh(i16 noundef signext %0, i32 noundef %1, ptr noundef readonly captures(none) %2) local_unnamed_addr #0 {
  %4 = alloca %union.anon.1, align 8
  call void @llvm.lifetime.start.p0(i64 8, ptr nonnull %4) #5
  switch i32 %1, label %202 [
    i32 3, label %5
    i32 4, label %18
    i32 5, label %41
    i32 8, label %86
    i32 9, label %99
    i32 10, label %122
    i32 11, label %167
    i32 12, label %191
  ]

5:                                                ; preds = %3
  %6 = icmp eq i16 %0, 18761
  br i1 %6, label %7, label %9

7:                                                ; preds = %5
  %8 = load i16, ptr %2, align 1
  br label %_Z19libraw_sget2_staticsPh.exit

9:                                                ; preds = %5
  %10 = load i8, ptr %2, align 1, !tbaa !71
  %11 = zext i8 %10 to i16
  %12 = shl nuw i16 %11, 8
  %13 = getelementptr inbounds nuw i8, ptr %2, i64 1
  %14 = load i8, ptr %13, align 1, !tbaa !71
  %15 = zext i8 %14 to i16
  %16 = or disjoint i16 %12, %15
  br label %_Z19libraw_sget2_staticsPh.exit

_Z19libraw_sget2_staticsPh.exit:                  ; preds = %7, %9
  %.0.i = phi i16 [ %8, %7 ], [ %16, %9 ]
  %17 = uitofp i16 %.0.i to double
  br label %206

18:                                               ; preds = %3
  %19 = icmp eq i16 %0, 18761
  br i1 %19, label %20, label %22

20:                                               ; preds = %18
  %21 = load i32, ptr %2, align 1
  br label %_Z19libraw_sget4_staticsPh.exit

22:                                               ; preds = %18
  %23 = load i8, ptr %2, align 1, !tbaa !71
  %24 = zext i8 %23 to i32
  %25 = shl nuw i32 %24, 24
  %26 = getelementptr inbounds nuw i8, ptr %2, i64 1
  %27 = load i8, ptr %26, align 1, !tbaa !71
  %28 = zext i8 %27 to i32
  %29 = shl nuw nsw i32 %28, 16
  %30 = or disjoint i32 %29, %25
  %31 = getelementptr inbounds nuw i8, ptr %2, i64 2
  %32 = load i8, ptr %31, align 1, !tbaa !71
  %33 = zext i8 %32 to i32
  %34 = shl nuw nsw i32 %33, 8
  %35 = or disjoint i32 %30, %34
  %36 = getelementptr inbounds nuw i8, ptr %2, i64 3
  %37 = load i8, ptr %36, align 1, !tbaa !71
  %38 = zext i8 %37 to i32
  %39 = or disjoint i32 %35, %38
  br label %_Z19libraw_sget4_staticsPh.exit

_Z19libraw_sget4_staticsPh.exit:                  ; preds = %20, %22
  %.0.i32 = phi i32 [ %21, %20 ], [ %39, %22 ]
  %40 = uitofp i32 %.0.i32 to double
  br label %206

41:                                               ; preds = %3
  %42 = icmp eq i16 %0, 18761
  br i1 %42, label %43, label %47

43:                                               ; preds = %41
  %44 = load i32, ptr %2, align 1
  %45 = getelementptr inbounds nuw i8, ptr %2, i64 4
  %46 = load i32, ptr %45, align 1
  br label %_Z19libraw_sget4_staticsPh.exit36

47:                                               ; preds = %41
  %48 = load i8, ptr %2, align 1, !tbaa !71
  %49 = zext i8 %48 to i32
  %50 = shl nuw i32 %49, 24
  %51 = getelementptr inbounds nuw i8, ptr %2, i64 1
  %52 = load i8, ptr %51, align 1, !tbaa !71
  %53 = zext i8 %52 to i32
  %54 = shl nuw nsw i32 %53, 16
  %55 = or disjoint i32 %54, %50
  %56 = getelementptr inbounds nuw i8, ptr %2, i64 2
  %57 = load i8, ptr %56, align 1, !tbaa !71
  %58 = zext i8 %57 to i32
  %59 = shl nuw nsw i32 %58, 8
  %60 = or disjoint i32 %55, %59
  %61 = getelementptr inbounds nuw i8, ptr %2, i64 3
  %62 = load i8, ptr %61, align 1, !tbaa !71
  %63 = zext i8 %62 to i32
  %64 = or disjoint i32 %60, %63
  %65 = getelementptr inbounds nuw i8, ptr %2, i64 4
  %66 = load i8, ptr %65, align 1, !tbaa !71
  %67 = zext i8 %66 to i32
  %68 = shl nuw i32 %67, 24
  %69 = getelementptr inbounds nuw i8, ptr %2, i64 5
  %70 = load i8, ptr %69, align 1, !tbaa !71
  %71 = zext i8 %70 to i32
  %72 = shl nuw nsw i32 %71, 16
  %73 = or disjoint i32 %72, %68
  %74 = getelementptr inbounds nuw i8, ptr %2, i64 6
  %75 = load i8, ptr %74, align 1, !tbaa !71
  %76 = zext i8 %75 to i32
  %77 = shl nuw nsw i32 %76, 8
  %78 = or disjoint i32 %73, %77
  %79 = getelementptr inbounds nuw i8, ptr %2, i64 7
  %80 = load i8, ptr %79, align 1, !tbaa !71
  %81 = zext i8 %80 to i32
  %82 = or disjoint i32 %78, %81
  br label %_Z19libraw_sget4_staticsPh.exit36

_Z19libraw_sget4_staticsPh.exit36:                ; preds = %43, %47
  %.sink.in = phi i32 [ %44, %43 ], [ %64, %47 ]
  %.0.i35 = phi i32 [ %46, %43 ], [ %82, %47 ]
  %.sink = uitofp i32 %.sink.in to double
  %83 = uitofp i32 %.0.i35 to double
  %.not31 = icmp eq i32 %.0.i35, 0
  %84 = select reassoc nsz arcp contract afn i1 %.not31, double 1.000000e+00, double %83
  %85 = fdiv reassoc nsz arcp contract afn double %.sink, %84
  br label %206

86:                                               ; preds = %3
  %87 = icmp eq i16 %0, 18761
  br i1 %87, label %88, label %90

88:                                               ; preds = %86
  %89 = load i16, ptr %2, align 1
  br label %_Z19libraw_sget2_staticsPh.exit38

90:                                               ; preds = %86
  %91 = load i8, ptr %2, align 1, !tbaa !71
  %92 = zext i8 %91 to i16
  %93 = shl nuw i16 %92, 8
  %94 = getelementptr inbounds nuw i8, ptr %2, i64 1
  %95 = load i8, ptr %94, align 1, !tbaa !71
  %96 = zext i8 %95 to i16
  %97 = or disjoint i16 %93, %96
  br label %_Z19libraw_sget2_staticsPh.exit38

_Z19libraw_sget2_staticsPh.exit38:                ; preds = %88, %90
  %.0.i37 = phi i16 [ %89, %88 ], [ %97, %90 ]
  %98 = sitofp i16 %.0.i37 to double
  br label %206

99:                                               ; preds = %3
  %100 = icmp eq i16 %0, 18761
  br i1 %100, label %101, label %103

101:                                              ; preds = %99
  %102 = load i32, ptr %2, align 1
  br label %_Z19libraw_sget4_staticsPh.exit40

103:                                              ; preds = %99
  %104 = load i8, ptr %2, align 1, !tbaa !71
  %105 = zext i8 %104 to i32
  %106 = shl nuw i32 %105, 24
  %107 = getelementptr inbounds nuw i8, ptr %2, i64 1
  %108 = load i8, ptr %107, align 1, !tbaa !71
  %109 = zext i8 %108 to i32
  %110 = shl nuw nsw i32 %109, 16
  %111 = or disjoint i32 %110, %106
  %112 = getelementptr inbounds nuw i8, ptr %2, i64 2
  %113 = load i8, ptr %112, align 1, !tbaa !71
  %114 = zext i8 %113 to i32
  %115 = shl nuw nsw i32 %114, 8
  %116 = or disjoint i32 %111, %115
  %117 = getelementptr inbounds nuw i8, ptr %2, i64 3
  %118 = load i8, ptr %117, align 1, !tbaa !71
  %119 = zext i8 %118 to i32
  %120 = or disjoint i32 %116, %119
  br label %_Z19libraw_sget4_staticsPh.exit40

_Z19libraw_sget4_staticsPh.exit40:                ; preds = %101, %103
  %.0.i39 = phi i32 [ %102, %101 ], [ %120, %103 ]
  %121 = sitofp i32 %.0.i39 to double
  br label %206

122:                                              ; preds = %3
  %123 = icmp eq i16 %0, 18761
  br i1 %123, label %124, label %128

124:                                              ; preds = %122
  %125 = load i32, ptr %2, align 1
  %126 = getelementptr inbounds nuw i8, ptr %2, i64 4
  %127 = load i32, ptr %126, align 1
  br label %_Z19libraw_sget4_staticsPh.exit44

128:                                              ; preds = %122
  %129 = load i8, ptr %2, align 1, !tbaa !71
  %130 = zext i8 %129 to i32
  %131 = shl nuw i32 %130, 24
  %132 = getelementptr inbounds nuw i8, ptr %2, i64 1
  %133 = load i8, ptr %132, align 1, !tbaa !71
  %134 = zext i8 %133 to i32
  %135 = shl nuw nsw i32 %134, 16
  %136 = or disjoint i32 %135, %131
  %137 = getelementptr inbounds nuw i8, ptr %2, i64 2
  %138 = load i8, ptr %137, align 1, !tbaa !71
  %139 = zext i8 %138 to i32
  %140 = shl nuw nsw i32 %139, 8
  %141 = or disjoint i32 %136, %140
  %142 = getelementptr inbounds nuw i8, ptr %2, i64 3
  %143 = load i8, ptr %142, align 1, !tbaa !71
  %144 = zext i8 %143 to i32
  %145 = or disjoint i32 %141, %144
  %146 = getelementptr inbounds nuw i8, ptr %2, i64 4
  %147 = load i8, ptr %146, align 1, !tbaa !71
  %148 = zext i8 %147 to i32
  %149 = shl nuw i32 %148, 24
  %150 = getelementptr inbounds nuw i8, ptr %2, i64 5
  %151 = load i8, ptr %150, align 1, !tbaa !71
  %152 = zext i8 %151 to i32
  %153 = shl nuw nsw i32 %152, 16
  %154 = or disjoint i32 %153, %149
  %155 = getelementptr inbounds nuw i8, ptr %2, i64 6
  %156 = load i8, ptr %155, align 1, !tbaa !71
  %157 = zext i8 %156 to i32
  %158 = shl nuw nsw i32 %157, 8
  %159 = or disjoint i32 %154, %158
  %160 = getelementptr inbounds nuw i8, ptr %2, i64 7
  %161 = load i8, ptr %160, align 1, !tbaa !71
  %162 = zext i8 %161 to i32
  %163 = or disjoint i32 %159, %162
  br label %_Z19libraw_sget4_staticsPh.exit44

_Z19libraw_sget4_staticsPh.exit44:                ; preds = %124, %128
  %.sink50.in = phi i32 [ %125, %124 ], [ %145, %128 ]
  %.0.i43 = phi i32 [ %127, %124 ], [ %163, %128 ]
  %.sink50 = sitofp i32 %.sink50.in to double
  %164 = sitofp i32 %.0.i43 to double
  %.not30 = icmp eq i32 %.0.i43, 0
  %165 = select reassoc nsz arcp contract afn i1 %.not30, double 1.000000e+00, double %164
  %166 = fdiv reassoc nsz arcp contract afn double %.sink50, %165
  br label %206

167:                                              ; preds = %3
  %168 = icmp eq i16 %0, 18761
  br i1 %168, label %169, label %171

169:                                              ; preds = %167
  %170 = load i32, ptr %2, align 1
  br label %_Z19libraw_sget4_staticsPh.exit46

171:                                              ; preds = %167
  %172 = load i8, ptr %2, align 1, !tbaa !71
  %173 = zext i8 %172 to i32
  %174 = shl nuw i32 %173, 24
  %175 = getelementptr inbounds nuw i8, ptr %2, i64 1
  %176 = load i8, ptr %175, align 1, !tbaa !71
  %177 = zext i8 %176 to i32
  %178 = shl nuw nsw i32 %177, 16
  %179 = or disjoint i32 %178, %174
  %180 = getelementptr inbounds nuw i8, ptr %2, i64 2
  %181 = load i8, ptr %180, align 1, !tbaa !71
  %182 = zext i8 %181 to i32
  %183 = shl nuw nsw i32 %182, 8
  %184 = or disjoint i32 %179, %183
  %185 = getelementptr inbounds nuw i8, ptr %2, i64 3
  %186 = load i8, ptr %185, align 1, !tbaa !71
  %187 = zext i8 %186 to i32
  %188 = or disjoint i32 %184, %187
  br label %_Z19libraw_sget4_staticsPh.exit46

_Z19libraw_sget4_staticsPh.exit46:                ; preds = %169, %171
  %.0.i45 = phi i32 [ %170, %169 ], [ %188, %171 ]
  %189 = bitcast i32 %.0.i45 to float
  %190 = fpext reassoc nsz arcp contract afn float %189 to double
  br label %206

191:                                              ; preds = %3
  %.not = icmp eq i16 %0, 18761
  %192 = select i1 %.not, i32 0, i32 7
  %193 = getelementptr inbounds nuw i8, ptr %2, i64 1
  %194 = load i8, ptr %193, align 1, !tbaa !71
  br label %195

195:                                              ; preds = %191, %195
  %.02949 = phi i32 [ 0, %191 ], [ %199, %195 ]
  %196 = xor i32 %.02949, %192
  %197 = zext nneg i32 %196 to i64
  %198 = getelementptr inbounds nuw [8 x i8], ptr %4, i64 0, i64 %197
  store i8 %194, ptr %198, align 1, !tbaa !71
  %199 = add nuw nsw i32 %.02949, 1
  %exitcond.not = icmp eq i32 %199, 8
  br i1 %exitcond.not, label %200, label %195, !llvm.loop !77

200:                                              ; preds = %195
  %201 = load double, ptr %4, align 8, !tbaa !71
  br label %206

202:                                              ; preds = %3
  %203 = getelementptr inbounds nuw i8, ptr %2, i64 1
  %204 = load i8, ptr %203, align 1, !tbaa !71
  %205 = uitofp i8 %204 to double
  br label %206

206:                                              ; preds = %202, %200, %_Z19libraw_sget4_staticsPh.exit46, %_Z19libraw_sget4_staticsPh.exit44, %_Z19libraw_sget4_staticsPh.exit40, %_Z19libraw_sget2_staticsPh.exit38, %_Z19libraw_sget4_staticsPh.exit36, %_Z19libraw_sget4_staticsPh.exit, %_Z19libraw_sget2_staticsPh.exit
  %.0 = phi nsz double [ %205, %202 ], [ %201, %200 ], [ %190, %_Z19libraw_sget4_staticsPh.exit46 ], [ %166, %_Z19libraw_sget4_staticsPh.exit44 ], [ %121, %_Z19libraw_sget4_staticsPh.exit40 ], [ %98, %_Z19libraw_sget2_staticsPh.exit38 ], [ %85, %_Z19libraw_sget4_staticsPh.exit36 ], [ %40, %_Z19libraw_sget4_staticsPh.exit ], [ %17, %_Z19libraw_sget2_staticsPh.exit ]
  call void @llvm.lifetime.end.p0(i64 8, ptr nonnull %4) #5
  ret double %.0
}